

 Start  Stop   Length Name                   Class
 00000H 00001H 00002H BASE                   PROG
 00002H 06D53H 06D52H PROG                   PROG
 06D54H 06D55H 00002H TAIL                   PROG
 06D60H 15595H 0E836H DATA                   DATA
 155A0H 1561FH 00080H STACK                  DATA

 Origin   Group
 06D6:0   DGROUP
 0000:0   PGROUP

  Address         Publics by Name

 0000:60ED       ALLMEM
 06D6:E35E       ARGC
 06D6:E360       ARGV
 0000:0BB7       BB_CLEAR
 0000:0DD1       BB_FLIP
 0000:6C6D       BDOS
 0000:42DE       BEEP
 0000:6100       BLDMEM
 0000:31EC       CLEARBOTTOM
 0000:55C0       CLOSE
 0000:4116       CODECHECKSUM
 0000:4F7F       CREAT
 0000:1952       CUTSCENE
 0000:6A4C       CXC33
 0000:6C7F       CXD33
 0000:6D27       CXM33
 0000:03DE       C_03DE
 0000:05D2       C_05D2
 0000:0616       C_0616
 0000:064E       C_064E
 0000:0F57       C_0F57
 0000:0F90       C_0F90
 0000:1024       C_1024
 0000:1090       C_1090
 0000:1354       C_1354
 0000:1705       C_1705
 0000:177B       C_177B
 0000:1906       C_1906
 0000:191C       C_191C
 0000:19BD       C_19BD
 0000:19E9       C_19E9
 0000:19F5       C_19F5
 0000:1A35       C_1A35
 0000:1B09       C_1B09
 0000:1B6E       C_1B6E
 0000:1C9F       C_1C9F
 0000:1D4E       C_1D4E
 0000:1DD1       C_1DD1
 0000:1E1C       C_1E1C
 0000:1F43       C_1F43
 0000:1F86       C_1F86
 0000:1FD3       C_1FD3
 0000:20E3       C_20E3
 0000:2366       C_2366
 0000:268A       C_268A
 0000:29C6       C_29C6
 0000:2A6E       C_2A6E
 0000:2A94       C_2A94
 0000:2ACE       C_2ACE
 0000:2C19       C_2C19
 0000:2C62       C_2C62
 0000:2FB2       C_2FB2
 0000:301D       C_301D
 0000:3233       C_3233
 0000:3AC0       C_3AC0
 0000:3B1D       C_3B1D
 0000:3B63       C_3B63
 0000:3BAC       C_3BAC
 0000:3BEF       C_3BEF
 0000:3F6C       C_3F6C
 0000:3F83       C_3F83
 0000:3F9E       C_3F9E
 0000:3FE4       C_3FE4
 0000:4007       C_4007
 0000:402A       C_402A
 0000:4055       C_4055
 0000:414A       C_414A
 0000:42F4       C_42F4
 0000:4300       C_4300
 0000:430A       C_430A
 0000:440E       C_440E
 0000:4426       C_4426
 0000:445D       C_445D
 0000:44F4       C_44F4
 0000:46CC       C_46CC
 0000:4718       C_4718
 0000:48E2       C_48E2
 0000:41BE       DOINPUT
 0000:30A1       DRMETERS
 06D6:00E2       D_00E2
 06D6:00E4       D_00E4
 06D6:00E6       D_00E6
 06D6:00E8       D_00E8
 06D6:00EA       D_00EA
 06D6:00EC       D_00EC
 06D6:00EE       D_00EE
 06D6:00F0       D_00F0
 06D6:00F2       D_00F2
 06D6:00F4       D_00F4
 06D6:00F6       D_00F6
 06D6:00F8       D_00F8
 06D6:00FA       D_00FA
 06D6:00FC       D_00FC
 06D6:00FE       D_00FE
 06D6:0100       D_0100
 06D6:0102       D_0102
 06D6:0104       D_0104
 06D6:0106       D_0106
 06D6:0108       D_0108
 06D6:010A       D_010A
 06D6:010C       D_010C
 06D6:010E       D_010E
 06D6:0110       D_0110
 06D6:0112       D_0112
 06D6:0118       D_0118
 06D6:011A       D_011A
 06D6:011C       D_011C
 06D6:011E       D_011E
 06D6:0120       D_0120
 06D6:0122       D_0122
 06D6:0124       D_0124
 06D6:0126       D_0126
 06D6:0128       D_0128
 06D6:012A       D_012A
 06D6:012C       D_012C
 06D6:012E       D_012E
 06D6:0130       D_0130
 06D6:0132       D_0132
 06D6:0142       D_0142
 06D6:0152       D_0152
 06D6:0154       D_0154
 06D6:0156       D_0156
 06D6:0158       D_0158
 06D6:015A       D_015A
 06D6:015C       D_015C
 06D6:015E       D_015E
 06D6:0162       D_0162
 06D6:0166       D_0166
 06D6:0168       D_0168
 06D6:016A       D_016A
 06D6:016C       D_016C
 06D6:016E       D_016E
 06D6:0170       D_0170
 06D6:0172       D_0172
 06D6:0174       D_0174
 06D6:01E8       D_01E8
 06D6:021C       D_021C
 06D6:0264       D_0264
 06D6:02C0       D_02C0
 06D6:02DC       D_02DC
 06D6:02E6       D_02E6
 06D6:02F0       D_02F0
 06D6:02FA       D_02FA
 06D6:0304       D_0304
 06D6:030E       D_030E
 06D6:0318       D_0318
 06D6:0322       D_0322
 06D6:032D       D_032D
 06D6:0332       D_0332
 06D6:0337       D_0337
 06D6:41B7       D_41B7
 06D6:41B9       D_41B9
 06D6:A606       D_A606
 06D6:B6FA       D_B6FA
 06D6:B9BA       D_B9BA
 06D6:B9BE       D_B9BE
 06D6:B9C0       D_B9C0
 06D6:BB60       D_BB60
 06D6:BB65       D_BB65
 06D6:BB92       D_BB92
 06D6:BB94       D_BB94
 06D6:BF92       D_BF92
 06D6:C230       D_C230
 06D6:C232       D_C232
 06D6:C234       D_C234
 06D6:C236       D_C236
 06D6:C238       D_C238
 06D6:C246       D_C246
 06D6:C254       D_C254
 06D6:C262       D_C262
 06D6:C264       D_C264
 06D6:C2B8       D_C2B8
 06D6:CC78       D_CC78
 06D6:CC7A       D_CC7A
 06D6:CCCE       D_CCCE
 06D6:D43A       D_D43A
 06D6:D43C       D_D43C
 06D6:D43E       D_D43E
 06D6:D440       D_D440
 06D6:D442       D_D442
 06D6:D444       D_D444
 06D6:D46C       D_D46C
 06D6:D476       D_D476
 06D6:D49E       D_D49E
 06D6:D4A8       D_D4A8
 06D6:D4D0       D_D4D0
 06D6:D4DC       D_D4DC
 06D6:D4E0       D_D4E0
 06D6:D4E2       D_D4E2
 06D6:D502       D_D502
 06D6:D504       D_D504
 06D6:D506       D_D506
 06D6:D508       D_D508
 06D6:D50A       D_D50A
 06D6:D50C       D_D50C
 06D6:D50E       D_D50E
 06D6:D54C       D_D54C
 06D6:D59E       D_D59E
 06D6:D5A8       D_D5A8
 06D6:DD8A       D_DD8A
 06D6:DDB6       D_DDB6
 06D6:DDD0       D_DDD0
 06D6:DE2B       D_DE2B
 06D6:DE49       D_DE49
 06D6:DE66       D_DE66
 06D6:DE68       D_DE68
 06D6:DE69       D_DE69
 06D6:DE70       D_DE70
 06D6:DE72       D_DE72
 06D6:DE85       D_DE85
 06D6:E0CB       D_E0CB
 06D6:E0CC       D_E0CC
 06D6:E0CD       D_E0CD
 06D6:E0CE       D_E0CE
 06D6:E4DA       ERRNO
 0000:48F3       EXIT
 0000:4C2B       FCLOSE
 0000:49BB       FGETS
 0000:4A30       FOPEN
 0000:4CF2       FPUTS
 0000:4A77       FREOPEN
 0000:4299       GETKEY
 0000:6197       GETMEM
 0000:61B4       GETML
 0000:4942       GETS
 0000:4198       GETSETSEED
 06D6:0164       KM_BASE
 06D6:886A       KM_DATA
 06D6:866A       KM_INDEX
 06D6:0160       KS_BASE
 06D6:44CA       KS_DATA
 06D6:42CA       KS_INDEX
 0000:3EA9       K_PUTS
 0000:0692       K_RAND
 06D6:0116       K_STRL
 06D6:0114       K_STRR
 0000:0FBB       LOADBCGAT
 0000:12E0       LOADSCRIPT
 0000:56A5       LSBRK
 0000:54C8       LSEEK
 0000:0255       MAIN
 0000:4D80       OPEN
 0000:4C85       PUTS
 0000:4083       QUESTION
 0000:5770       RBRK
 0000:4FA4       READ
 0000:5659       REMOVE
 0000:566C       RENAME
 0000:0C32       RENDER
 0000:62DB       RLSMEM
 0000:62FB       RLSML
 0000:60B8       RSTMEM
 0000:16D6       SAFE_OPEN
 0000:574A       SBRK
 0000:647B       SETBUF
 0000:6C0E       SETNBF
 0000:617C       SIZMEM
 0000:3C41       SOUND
 0000:584E       SSCANF
 0000:59A7       STRCAT
 0000:64C1       STRCMP
 0000:5A1D       STRCPY
 0000:6507       STRLEN
 0000:59D9       STRNCAT
 0000:5A80       STRNCMP
 0000:5A45       STRNCPY
 0000:1936       TIM_STRT
 0000:193F       TIM_WAIT
 0000:5620       UNLINK
 0000:42FB       WAITKEY
 0000:42D0       WAITNOKEY
 0000:529F       WRITE
 0000:0207       XCABT
 0000:023C       XCEXIT
 0000:0220       XCOVF
 0000:5D05       _AGET
 0000:5D19       _APUT
 06D6:0017       _BASE
 06D6:E3D6       _BUFSIZ
 0000:5CC9       _CGET
 0000:5CDD       _CGETE
 0000:6C02       _CGETS
 0000:5CF1       _CPUT
 06D6:E3D8       _CTYPE
 06D6:E1E8       _DNBS
 06D6:000F       _DOS
 06D6:006B       _ENV
 06D6:006F       _ESIZE
 0000:652D       _EXIT
 0000:6B2D       _FCHGM
 0000:6A9D       _FCLOSE
 0000:6A69       _FCREAT
 0000:6B4C       _FGDI
 0000:5D41       _FILBF
 0000:5E4D       _FLSBF
 06D6:E4DC       _FMODE
 0000:6A83       _FOPEN
 06D6:0071       _FPA
 06D6:0079       _FPERR
 0000:6AB4       _FREAD
 0000:6B5B       _FREN
 0000:6B16       _FRMV
 0000:6AF2       _FSEEK
 0000:6AD3       _FWRITE
 06D6:0019       _INAME
 06D6:E0D0       _IOB
 06D6:E4DE       _IOMODE
 0000:5D2D       _LPUT
 0000:5AEE       _MAIN
 06D6:005D       _MBASE
 06D6:E832       _MELT
 06D6:E82A       _MNEED
 06D6:0061       _MNEXT
 06D6:0065       _MSIZE
 06D6:007B       _NDP
 06D6:007E       _NDPCW
 06D6:007C       _NDPSW
 06D6:E4E0       _NUFBS
 06D6:0039       _ONAME
 06D6:0080       _OSERR
 06D6:E82E       _POOL
 06D6:0059       _PSP
 0000:6B79       _RBRK
 0000:6BBE       _SBRK
 0000:653D       _SFMT
 06D6:0013       _SP
 06D6:0011       _SS
 06D6:00E0       _STACK
 06D6:0015       _TOP
 06D6:0069       _TSIZE
 06D6:E4E2       _UFBS
 06D6:0002       _VER
 0000:2A8F       __2A8F
 0000:4186       __4186
 06D6:D4DA       __D4DA
 06D6:D4DE       __D4DE

  Address         Publics by Value

 0000:0207       XCABT
 0000:0220       XCOVF
 0000:023C       XCEXIT
 0000:0255       MAIN
 0000:03DE       C_03DE
 0000:05D2       C_05D2
 0000:0616       C_0616
 0000:064E       C_064E
 0000:0692       K_RAND
 0000:0BB7       BB_CLEAR
 0000:0C32       RENDER
 0000:0DD1       BB_FLIP
 0000:0F57       C_0F57
 0000:0F90       C_0F90
 0000:0FBB       LOADBCGAT
 0000:1024       C_1024
 0000:1090       C_1090
 0000:12E0       LOADSCRIPT
 0000:1354       C_1354
 0000:16D6       SAFE_OPEN
 0000:1705       C_1705
 0000:177B       C_177B
 0000:1906       C_1906
 0000:191C       C_191C
 0000:1936       TIM_STRT
 0000:193F       TIM_WAIT
 0000:1952       CUTSCENE
 0000:19BD       C_19BD
 0000:19E9       C_19E9
 0000:19F5       C_19F5
 0000:1A35       C_1A35
 0000:1B09       C_1B09
 0000:1B6E       C_1B6E
 0000:1C9F       C_1C9F
 0000:1D4E       C_1D4E
 0000:1DD1       C_1DD1
 0000:1E1C       C_1E1C
 0000:1F43       C_1F43
 0000:1F86       C_1F86
 0000:1FD3       C_1FD3
 0000:20E3       C_20E3
 0000:2366       C_2366
 0000:268A       C_268A
 0000:29C6       C_29C6
 0000:2A6E       C_2A6E
 0000:2A8F       __2A8F
 0000:2A94       C_2A94
 0000:2ACE       C_2ACE
 0000:2C19       C_2C19
 0000:2C62       C_2C62
 0000:2FB2       C_2FB2
 0000:301D       C_301D
 0000:30A1       DRMETERS
 0000:31EC       CLEARBOTTOM
 0000:3233       C_3233
 0000:3AC0       C_3AC0
 0000:3B1D       C_3B1D
 0000:3B63       C_3B63
 0000:3BAC       C_3BAC
 0000:3BEF       C_3BEF
 0000:3C41       SOUND
 0000:3EA9       K_PUTS
 0000:3F6C       C_3F6C
 0000:3F83       C_3F83
 0000:3F9E       C_3F9E
 0000:3FE4       C_3FE4
 0000:4007       C_4007
 0000:402A       C_402A
 0000:4055       C_4055
 0000:4083       QUESTION
 0000:4116       CODECHECKSUM
 0000:414A       C_414A
 0000:4186       __4186
 0000:4198       GETSETSEED
 0000:41BE       DOINPUT
 0000:4299       GETKEY
 0000:42D0       WAITNOKEY
 0000:42DE       BEEP
 0000:42F4       C_42F4
 0000:42FB       WAITKEY
 0000:4300       C_4300
 0000:430A       C_430A
 0000:440E       C_440E
 0000:4426       C_4426
 0000:445D       C_445D
 0000:44F4       C_44F4
 0000:46CC       C_46CC
 0000:4718       C_4718
 0000:48E2       C_48E2
 0000:48F3       EXIT
 0000:4942       GETS
 0000:49BB       FGETS
 0000:4A30       FOPEN
 0000:4A77       FREOPEN
 0000:4C2B       FCLOSE
 0000:4C85       PUTS
 0000:4CF2       FPUTS
 0000:4D80       OPEN
 0000:4F7F       CREAT
 0000:4FA4       READ
 0000:529F       WRITE
 0000:54C8       LSEEK
 0000:55C0       CLOSE
 0000:5620       UNLINK
 0000:5659       REMOVE
 0000:566C       RENAME
 0000:56A5       LSBRK
 0000:574A       SBRK
 0000:5770       RBRK
 0000:584E       SSCANF
 0000:59A7       STRCAT
 0000:59D9       STRNCAT
 0000:5A1D       STRCPY
 0000:5A45       STRNCPY
 0000:5A80       STRNCMP
 0000:5AEE       _MAIN
 0000:5CC9       _CGET
 0000:5CDD       _CGETE
 0000:5CF1       _CPUT
 0000:5D05       _AGET
 0000:5D19       _APUT
 0000:5D2D       _LPUT
 0000:5D41       _FILBF
 0000:5E4D       _FLSBF
 0000:60B8       RSTMEM
 0000:60ED       ALLMEM
 0000:6100       BLDMEM
 0000:617C       SIZMEM
 0000:6197       GETMEM
 0000:61B4       GETML
 0000:62DB       RLSMEM
 0000:62FB       RLSML
 0000:647B       SETBUF
 0000:64C1       STRCMP
 0000:6507       STRLEN
 0000:652D       _EXIT
 0000:653D       _SFMT
 0000:6A4C       CXC33
 0000:6A69       _FCREAT
 0000:6A83       _FOPEN
 0000:6A9D       _FCLOSE
 0000:6AB4       _FREAD
 0000:6AD3       _FWRITE
 0000:6AF2       _FSEEK
 0000:6B16       _FRMV
 0000:6B2D       _FCHGM
 0000:6B4C       _FGDI
 0000:6B5B       _FREN
 0000:6B79       _RBRK
 0000:6BBE       _SBRK
 0000:6C02       _CGETS
 0000:6C0E       SETNBF
 0000:6C6D       BDOS
 0000:6C7F       CXD33
 0000:6D27       CXM33
 06D6:0002       _VER
 06D6:000F       _DOS
 06D6:0011       _SS
 06D6:0013       _SP
 06D6:0015       _TOP
 06D6:0017       _BASE
 06D6:0019       _INAME
 06D6:0039       _ONAME
 06D6:0059       _PSP
 06D6:005D       _MBASE
 06D6:0061       _MNEXT
 06D6:0065       _MSIZE
 06D6:0069       _TSIZE
 06D6:006B       _ENV
 06D6:006F       _ESIZE
 06D6:0071       _FPA
 06D6:0079       _FPERR
 06D6:007B       _NDP
 06D6:007C       _NDPSW
 06D6:007E       _NDPCW
 06D6:0080       _OSERR
 06D6:00E0       _STACK
 06D6:00E2       D_00E2
 06D6:00E4       D_00E4
 06D6:00E6       D_00E6
 06D6:00E8       D_00E8
 06D6:00EA       D_00EA
 06D6:00EC       D_00EC
 06D6:00EE       D_00EE
 06D6:00F0       D_00F0
 06D6:00F2       D_00F2
 06D6:00F4       D_00F4
 06D6:00F6       D_00F6
 06D6:00F8       D_00F8
 06D6:00FA       D_00FA
 06D6:00FC       D_00FC
 06D6:00FE       D_00FE
 06D6:0100       D_0100
 06D6:0102       D_0102
 06D6:0104       D_0104
 06D6:0106       D_0106
 06D6:0108       D_0108
 06D6:010A       D_010A
 06D6:010C       D_010C
 06D6:010E       D_010E
 06D6:0110       D_0110
 06D6:0112       D_0112
 06D6:0114       K_STRR
 06D6:0116       K_STRL
 06D6:0118       D_0118
 06D6:011A       D_011A
 06D6:011C       D_011C
 06D6:011E       D_011E
 06D6:0120       D_0120
 06D6:0122       D_0122
 06D6:0124       D_0124
 06D6:0126       D_0126
 06D6:0128       D_0128
 06D6:012A       D_012A
 06D6:012C       D_012C
 06D6:012E       D_012E
 06D6:0130       D_0130
 06D6:0132       D_0132
 06D6:0142       D_0142
 06D6:0152       D_0152
 06D6:0154       D_0154
 06D6:0156       D_0156
 06D6:0158       D_0158
 06D6:015A       D_015A
 06D6:015C       D_015C
 06D6:015E       D_015E
 06D6:0160       KS_BASE
 06D6:0162       D_0162
 06D6:0164       KM_BASE
 06D6:0166       D_0166
 06D6:0168       D_0168
 06D6:016A       D_016A
 06D6:016C       D_016C
 06D6:016E       D_016E
 06D6:0170       D_0170
 06D6:0172       D_0172
 06D6:0174       D_0174
 06D6:01E8       D_01E8
 06D6:021C       D_021C
 06D6:0264       D_0264
 06D6:02C0       D_02C0
 06D6:02DC       D_02DC
 06D6:02E6       D_02E6
 06D6:02F0       D_02F0
 06D6:02FA       D_02FA
 06D6:0304       D_0304
 06D6:030E       D_030E
 06D6:0318       D_0318
 06D6:0322       D_0322
 06D6:032D       D_032D
 06D6:0332       D_0332
 06D6:0337       D_0337
 06D6:41B7       D_41B7
 06D6:41B9       D_41B9
 06D6:42CA       KS_INDEX
 06D6:44CA       KS_DATA
 06D6:866A       KM_INDEX
 06D6:886A       KM_DATA
 06D6:A606       D_A606
 06D6:B6FA       D_B6FA
 06D6:B9BA       D_B9BA
 06D6:B9BE       D_B9BE
 06D6:B9C0       D_B9C0
 06D6:BB60       D_BB60
 06D6:BB65       D_BB65
 06D6:BB92       D_BB92
 06D6:BB94       D_BB94
 06D6:BF92       D_BF92
 06D6:C230       D_C230
 06D6:C232       D_C232
 06D6:C234       D_C234
 06D6:C236       D_C236
 06D6:C238       D_C238
 06D6:C246       D_C246
 06D6:C254       D_C254
 06D6:C262       D_C262
 06D6:C264       D_C264
 06D6:C2B8       D_C2B8
 06D6:CC78       D_CC78
 06D6:CC7A       D_CC7A
 06D6:CCCE       D_CCCE
 06D6:D43A       D_D43A
 06D6:D43C       D_D43C
 06D6:D43E       D_D43E
 06D6:D440       D_D440
 06D6:D442       D_D442
 06D6:D444       D_D444
 06D6:D46C       D_D46C
 06D6:D476       D_D476
 06D6:D49E       D_D49E
 06D6:D4A8       D_D4A8
 06D6:D4D0       D_D4D0
 06D6:D4DA       __D4DA
 06D6:D4DC       D_D4DC
 06D6:D4DE       __D4DE
 06D6:D4E0       D_D4E0
 06D6:D4E2       D_D4E2
 06D6:D502       D_D502
 06D6:D504       D_D504
 06D6:D506       D_D506
 06D6:D508       D_D508
 06D6:D50A       D_D50A
 06D6:D50C       D_D50C
 06D6:D50E       D_D50E
 06D6:D54C       D_D54C
 06D6:D59E       D_D59E
 06D6:D5A8       D_D5A8
 06D6:DD8A       D_DD8A
 06D6:DDB6       D_DDB6
 06D6:DDD0       D_DDD0
 06D6:DE2B       D_DE2B
 06D6:DE49       D_DE49
 06D6:DE66       D_DE66
 06D6:DE68       D_DE68
 06D6:DE69       D_DE69
 06D6:DE70       D_DE70
 06D6:DE72       D_DE72
 06D6:DE85       D_DE85
 06D6:E0CB       D_E0CB
 06D6:E0CC       D_E0CC
 06D6:E0CD       D_E0CD
 06D6:E0CE       D_E0CE
 06D6:E0D0       _IOB
 06D6:E1E8       _DNBS
 06D6:E35E       ARGC
 06D6:E360       ARGV
 06D6:E3D6       _BUFSIZ
 06D6:E3D8       _CTYPE
 06D6:E4DA       ERRNO
 06D6:E4DC       _FMODE
 06D6:E4DE       _IOMODE
 06D6:E4E0       _NUFBS
 06D6:E4E2       _UFBS
 06D6:E82A       _MNEED
 06D6:E82E       _POOL
 06D6:E832       _MELT

Program entry point at 0000:0002
